target datalayout = "e-m:e-p270:32:32-p271:32:32-p272:64:64-i64:64-i128:128-f80:128-n8:16:32:64-S128"
target triple = "x86_64-pc-linux-gnu"

%struct.hm_fragment_st = type { %struct.hm_header_st, ptr, ptr }
%struct.hm_header_st = type { i8, i64, i16, i64, i64, i32, %struct.dtls1_retransmit_state }
%struct.dtls1_retransmit_state = type { ptr, ptr }

@.str = private unnamed_addr constant [36 x i8] c"../openssl/ssl/statem/statem_dtls.c\00", align 1

; Function Attrs: nounwind uwtable
define void @dtls1_hm_fragment_free(ptr noundef %0) #0 {
  %2 = alloca ptr, align 8
  store ptr %0, ptr %2, align 8, !tbaa !3
  %3 = load ptr, ptr %2, align 8, !tbaa !3
  %4 = icmp ne ptr %3, null
  br i1 %4, label %6, label %5

5:                                                ; preds = %1
  br label %14

6:                                                ; preds = %1
  %7 = load ptr, ptr %2, align 8, !tbaa !3
  %8 = getelementptr inbounds nuw %struct.hm_fragment_st, ptr %7, i32 0, i32 1
  %9 = load ptr, ptr %8, align 8, !tbaa !8
  call void @CRYPTO_free(ptr noundef %9, ptr noundef @.str, i32 noundef 101)
  %10 = load ptr, ptr %2, align 8, !tbaa !3
  %11 = getelementptr inbounds nuw %struct.hm_fragment_st, ptr %10, i32 0, i32 2
  %12 = load ptr, ptr %11, align 8, !tbaa !18
  call void @CRYPTO_free(ptr noundef %12, ptr noundef @.str, i32 noundef 102)
  %13 = load ptr, ptr %2, align 8, !tbaa !3
  call void @CRYPTO_free(ptr noundef %13, ptr noundef @.str, i32 noundef 103)
  br label %14

14:                                               ; preds = %6, %5
  ret void
}